target datalayout = "e-m:e-p270:32:32-p271:32:32-p272:64:64-i64:64-i128:128-f80:128-n8:16:32:64-S128"
target triple = "x86_64-pc-linux-gnu"

%struct.prov_aes_wrap_ctx_st = type { %struct.prov_cipher_ctx_st, %union.anon.0, ptr }
%struct.prov_cipher_ctx_st = type { [16 x i8], [16 x i8], [16 x i8], ptr, %union.anon, i32, i64, i64, i64, i64, i32, i8, i32, ptr, i32, i64, i32, i64, i32, ptr, ptr, ptr }
%union.anon = type { ptr }
%union.anon.0 = type { double, [240 x i8] }

@.str = private unnamed_addr constant [62 x i8] c"../openssl/providers/implementations/ciphers/cipher_aes_wrp.c\00", align 1

; Function Attrs: nounwind uwtable
define internal ptr @aes_wrap_dupctx(ptr noundef %0) #0 {
  %2 = alloca ptr, align 8
  %3 = alloca ptr, align 8
  %4 = alloca ptr, align 8
  %5 = alloca ptr, align 8
  %6 = alloca i32, align 4
  store ptr %0, ptr %3, align 8, !tbaa !3
  call void @llvm.lifetime.start.p0(i64 8, ptr %4) #4
  %7 = load ptr, ptr %3, align 8, !tbaa !3
  store ptr %7, ptr %4, align 8, !tbaa !15
  call void @llvm.lifetime.start.p0(i64 8, ptr %5) #4
  %8 = load ptr, ptr %3, align 8, !tbaa !3
  store ptr %8, ptr %5, align 8, !tbaa !15
  %9 = call i32 @ossl_prov_is_running()
  %10 = icmp ne i32 %9, 0
  br i1 %10, label %12, label %11

11:                                               ; preds = %1
  store ptr null, ptr %2, align 8
  store i32 1, ptr %6, align 4
  br label %56

12:                                               ; preds = %1
  %13 = load ptr, ptr %4, align 8, !tbaa !15
  %14 = icmp eq ptr %13, null
  br i1 %14, label %15, label %16

15:                                               ; preds = %12
  store ptr null, ptr %2, align 8
  store i32 1, ptr %6, align 4
  br label %56

16:                                               ; preds = %12
  %17 = load ptr, ptr %4, align 8, !tbaa !15
  %18 = call noalias ptr @CRYPTO_memdup(ptr noundef %17, i64 noundef 448, ptr noundef @.str, i32 noundef 79)
  store ptr %18, ptr %5, align 8, !tbaa !15
  %19 = load ptr, ptr %5, align 8, !tbaa !15
  %20 = icmp ne ptr %19, null
  br i1 %20, label %21, label %54

21:                                               ; preds = %16
  %22 = load ptr, ptr %5, align 8, !tbaa !15
  %23 = getelementptr inbounds nuw %struct.prov_aes_wrap_ctx_st, ptr %22, i32 0, i32 0
  %24 = getelementptr inbounds nuw %struct.prov_cipher_ctx_st, ptr %23, i32 0, i32 13
  %25 = load ptr, ptr %24, align 8, !tbaa !17
  %26 = icmp ne ptr %25, null
  br i1 %26, label %27, label %54

27:                                               ; preds = %21
  %28 = load ptr, ptr %5, align 8, !tbaa !15
  %29 = getelementptr inbounds nuw %struct.prov_aes_wrap_ctx_st, ptr %28, i32 0, i32 0
  %30 = getelementptr inbounds nuw %struct.prov_cipher_ctx_st, ptr %29, i32 0, i32 14
  %31 = load i32, ptr %30, align 8, !tbaa !23
  %32 = icmp ne i32 %31, 0
  br i1 %32, label %33, label %54

33:                                               ; preds = %27
  %34 = load ptr, ptr %5, align 8, !tbaa !15
  %35 = getelementptr inbounds nuw %struct.prov_aes_wrap_ctx_st, ptr %34, i32 0, i32 0
  %36 = getelementptr inbounds nuw %struct.prov_cipher_ctx_st, ptr %35, i32 0, i32 13
  %37 = load ptr, ptr %36, align 8, !tbaa !17
  %38 = load ptr, ptr %5, align 8, !tbaa !15
  %39 = getelementptr inbounds nuw %struct.prov_aes_wrap_ctx_st, ptr %38, i32 0, i32 0
  %40 = getelementptr inbounds nuw %struct.prov_cipher_ctx_st, ptr %39, i32 0, i32 15
  %41 = load i64, ptr %40, align 8, !tbaa !24
  %42 = call noalias ptr @CRYPTO_memdup(ptr noundef %37, i64 noundef %41, ptr noundef @.str, i32 noundef 83)
  %43 = load ptr, ptr %5, align 8, !tbaa !15
  %44 = getelementptr inbounds nuw %struct.prov_aes_wrap_ctx_st, ptr %43, i32 0, i32 0
  %45 = getelementptr inbounds nuw %struct.prov_cipher_ctx_st, ptr %44, i32 0, i32 13
  store ptr %42, ptr %45, align 8, !tbaa !17
  %46 = load ptr, ptr %5, align 8, !tbaa !15
  %47 = getelementptr inbounds nuw %struct.prov_aes_wrap_ctx_st, ptr %46, i32 0, i32 0
  %48 = getelementptr inbounds nuw %struct.prov_cipher_ctx_st, ptr %47, i32 0, i32 13
  %49 = load ptr, ptr %48, align 8, !tbaa !17
  %50 = icmp eq ptr %49, null
  br i1 %50, label %51, label %53

51:                                               ; preds = %33
  %52 = load ptr, ptr %5, align 8, !tbaa !15
  call void @CRYPTO_free(ptr noundef %52, ptr noundef @.str, i32 noundef 85)
  store ptr null, ptr %5, align 8, !tbaa !15
  br label %53

53:                                               ; preds = %51, %33
  br label %54

54:                                               ; preds = %53, %27, %21, %16
  %55 = load ptr, ptr %5, align 8, !tbaa !15
  store ptr %55, ptr %2, align 8
  store i32 1, ptr %6, align 4
  br label %56

56:                                               ; preds = %54, %15, %11
  call void @llvm.lifetime.end.p0(i64 8, ptr %5) #4
  call void @llvm.lifetime.end.p0(i64 8, ptr %4) #4
  %57 = load ptr, ptr %2, align 8
  ret ptr %57
}