; Function Attrs: nounwind uwtable
define internal ptr @aes_wrap_dupctx(ptr noundef %0) #0 {
  %2 = tail call i32 @ossl_prov_is_running() #3
  %.not = icmp eq i32 %2, 0
  %3 = icmp eq ptr %0, null
  %or.cond = or i1 %3, %.not
  br i1 %or.cond, label %18, label %4

4:                                                ; preds = %1
  %5 = tail call noalias ptr @CRYPTO_memdup(ptr noundef nonnull %0, i64 noundef 448, ptr noundef nonnull @.str, i32 noundef 79) #3
  %.not18 = icmp eq ptr %5, null
  br i1 %.not18, label %18, label %6

6:                                                ; preds = %4
  %7 = getelementptr inbounds nuw i8, ptr %5, i64 120
  %8 = load ptr, ptr %7, align 8, !tbaa !17
  %.not19 = icmp eq ptr %8, null
  br i1 %.not19, label %18, label %9

9:                                                ; preds = %6
  %10 = getelementptr inbounds nuw i8, ptr %5, i64 128
  %11 = load i32, ptr %10, align 8, !tbaa !18
  %.not20 = icmp eq i32 %11, 0
  br i1 %.not20, label %18, label %12

12:                                               ; preds = %9
  %13 = getelementptr inbounds nuw i8, ptr %5, i64 136
  %14 = load i64, ptr %13, align 8, !tbaa !19
  %15 = tail call noalias ptr @CRYPTO_memdup(ptr noundef nonnull %8, i64 noundef %14, ptr noundef nonnull @.str, i32 noundef 83) #3
  store ptr %15, ptr %7, align 8, !tbaa !17
  %16 = icmp eq ptr %15, null
  br i1 %16, label %17, label %18

17:                                               ; preds = %12
  tail call void @CRYPTO_free(ptr noundef nonnull %5, ptr noundef nonnull @.str, i32 noundef 85) #3
  br label %18

18:                                               ; preds = %4, %6, %9, %17, %12, %1
  %.014 = phi ptr [ null, %1 ], [ null, %17 ], [ %5, %12 ], [ %5, %9 ], [ %5, %6 ], [ null, %4 ]
  ret ptr %.014
}